target datalayout = "e-m:e-p270:32:32-p271:32:32-p272:64:64-i64:64-i128:128-f80:128-n8:16:32:64-S128"
target triple = "x86_64-pc-linux-gnu"

; Function Attrs: mustprogress nounwind uwtable
define noundef i32 @_ZN6Square9EdgeIndexEii(i32 noundef %0, i32 noundef %1) #1 align 2 {
  %3 = alloca i32, align 4
  %4 = alloca i32, align 4
  %5 = alloca i32, align 4
  store i32 %0, ptr %4, align 4
  store i32 %1, ptr %5, align 4
  %6 = load i32, ptr %4, align 4
  switch i32 %6, label %17 [
    i32 0, label %7
    i32 1, label %12
  ]

7:                                                ; preds = %2
  %8 = load i32, ptr %5, align 4
  %9 = icmp ne i32 %8, 0
  br i1 %9, label %11, label %10

10:                                               ; preds = %7
  store i32 0, ptr %3, align 4
  br label %18

11:                                               ; preds = %7
  store i32 2, ptr %3, align 4
  br label %18

12:                                               ; preds = %2
  %13 = load i32, ptr %5, align 4
  %14 = icmp ne i32 %13, 0
  br i1 %14, label %16, label %15

15:                                               ; preds = %12
  store i32 3, ptr %3, align 4
  br label %18

16:                                               ; preds = %12
  store i32 1, ptr %3, align 4
  br label %18

17:                                               ; preds = %2
  store i32 -1, ptr %3, align 4
  br label %18

18:                                               ; preds = %17, %16, %15, %11, %10
  %19 = load i32, ptr %3, align 4
  ret i32 %19
}

; Function Attrs: mustprogress nounwind uwtable
define void @_ZN6Square15FactorEdgeIndexEiRiS0_(i32 noundef %0, ptr noundef nonnull align 4 dereferenceable(4) %1, ptr noundef nonnull align 4 dereferenceable(4) %2) #1 align 2 {
  %4 = alloca i32, align 4
  %5 = alloca ptr, align 8
  %6 = alloca ptr, align 8
  store i32 %0, ptr %4, align 4
  store ptr %1, ptr %5, align 8
  store ptr %2, ptr %6, align 8
  %7 = load i32, ptr %4, align 4
  switch i32 %7, label %20 [
    i32 0, label %8
    i32 2, label %8
    i32 1, label %13
    i32 3, label %13
  ]

8:                                                ; preds = %3, %3
  %9 = load ptr, ptr %5, align 8
  store i32 0, ptr %9, align 4
  %10 = load i32, ptr %4, align 4
  %11 = sdiv i32 %10, 2
  %12 = load ptr, ptr %6, align 8
  store i32 %11, ptr %12, align 4
  br label %20

13:                                               ; preds = %3, %3
  %14 = load ptr, ptr %5, align 8
  store i32 1, ptr %14, align 4
  %15 = load i32, ptr %4, align 4
  %16 = sdiv i32 %15, 2
  %17 = add nsw i32 %16, 1
  %18 = srem i32 %17, 2
  %19 = load ptr, ptr %6, align 8
  store i32 %18, ptr %19, align 4
  br label %20

20:                                               ; preds = %13, %8, %3
  ret void
}

; Function Attrs: mustprogress nounwind uwtable
define noundef i32 @_ZN6Square16ReflectEdgeIndexEii(i32 noundef %0, i32 noundef %1) #1 align 2 {
  %3 = alloca i32, align 4
  %4 = alloca i32, align 4
  %5 = alloca i32, align 4
  %6 = alloca i32, align 4
  %7 = alloca i32, align 4
  %8 = alloca i32, align 4
  store i32 %0, ptr %4, align 4
  store i32 %1, ptr %5, align 4
  %9 = load i32, ptr %5, align 4
  %10 = srem i32 %9, 2
  store i32 %10, ptr %6, align 4
  %11 = load i32, ptr %4, align 4
  call void @_ZN6Square15FactorEdgeIndexEiRiS0_(i32 noundef %11, ptr noundef nonnull align 4 dereferenceable(4) %7, ptr noundef nonnull align 4 dereferenceable(4) %8)
  %12 = load i32, ptr %7, align 4
  %13 = load i32, ptr %6, align 4
  %14 = icmp ne i32 %12, %13
  br i1 %14, label %15, label %17

15:                                               ; preds = %2
  %16 = load i32, ptr %4, align 4
  store i32 %16, ptr %3, align 4
  br label %23

17:                                               ; preds = %2
  %18 = load i32, ptr %7, align 4
  %19 = load i32, ptr %8, align 4
  %20 = add nsw i32 %19, 1
  %21 = srem i32 %20, 2
  %22 = call noundef i32 @_ZN6Square9EdgeIndexEii(i32 noundef %18, i32 noundef %21)
  store i32 %22, ptr %3, align 4
  br label %23

23:                                               ; preds = %17, %15
  %24 = load i32, ptr %3, align 4
  ret i32 %24
}